target datalayout = "e-m:e-p270:32:32-p271:32:32-p272:64:64-i64:64-i128:128-f80:128-n8:16:32:64-S128"
target triple = "x86_64-pc-linux-gnu"

; Function Attrs: nounwind uwtable
define i32 @cl_verify_signature(ptr noundef %0, ptr noundef %1, ptr noundef %2, i32 noundef %3, ptr noundef %4, i64 noundef %5, i32 noundef %6) #0 {
  %8 = alloca i32, align 4
  %9 = alloca ptr, align 8
  %10 = alloca ptr, align 8
  %11 = alloca ptr, align 8
  %12 = alloca i32, align 4
  %13 = alloca ptr, align 8
  %14 = alloca i64, align 8
  %15 = alloca i32, align 4
  %16 = alloca ptr, align 8
  %17 = alloca ptr, align 8
  %18 = alloca i64, align 8
  %19 = alloca ptr, align 8
  %20 = alloca ptr, align 8
  %21 = alloca i64, align 8
  %22 = alloca i32, align 4
  store ptr %0, ptr %9, align 8, !tbaa !24
  store ptr %1, ptr %10, align 8, !tbaa !3
  store ptr %2, ptr %11, align 8, !tbaa !3
  store i32 %3, ptr %12, align 4, !tbaa !13
  store ptr %4, ptr %13, align 8, !tbaa !3
  store i64 %5, ptr %14, align 8, !tbaa !9
  store i32 %6, ptr %15, align 4, !tbaa !13
  call void @llvm.lifetime.start.p0(i64 8, ptr %16) #8
  call void @llvm.lifetime.start.p0(i64 8, ptr %17) #8
  call void @llvm.lifetime.start.p0(i64 8, ptr %18) #8
  call void @llvm.lifetime.start.p0(i64 8, ptr %19) #8
  %23 = load i32, ptr %15, align 4, !tbaa !13
  %24 = icmp ne i32 %23, 0
  br i1 %24, label %25, label %40

25:                                               ; preds = %7
  call void @llvm.lifetime.start.p0(i64 8, ptr %20) #8
  call void @llvm.lifetime.start.p0(i64 8, ptr %21) #8
  %26 = load ptr, ptr %11, align 8, !tbaa !3
  %27 = load i32, ptr %12, align 4, !tbaa !13
  %28 = zext i32 %27 to i64
  %29 = call ptr @cl_base64_decode(ptr noundef %26, i64 noundef %28, ptr noundef null, ptr noundef %21, i32 noundef 1)
  store ptr %29, ptr %20, align 8, !tbaa !3
  %30 = load ptr, ptr %20, align 8, !tbaa !3
  %31 = icmp ne ptr %30, null
  br i1 %31, label %33, label %32

32:                                               ; preds = %25
  store i32 -1, ptr %8, align 4
  store i32 1, ptr %22, align 4
  br label %37

33:                                               ; preds = %25
  %34 = load ptr, ptr %20, align 8, !tbaa !3
  store ptr %34, ptr %11, align 8, !tbaa !3
  %35 = load i64, ptr %21, align 8, !tbaa !9
  %36 = trunc i64 %35 to i32
  store i32 %36, ptr %12, align 4, !tbaa !13
  store i32 0, ptr %22, align 4
  br label %37

37:                                               ; preds = %33, %32
  call void @llvm.lifetime.end.p0(i64 8, ptr %21) #8
  call void @llvm.lifetime.end.p0(i64 8, ptr %20) #8
  %38 = load i32, ptr %22, align 4
  switch i32 %38, label %130 [
    i32 0, label %39
  ]

39:                                               ; preds = %37
  br label %40

40:                                               ; preds = %39, %7
  %41 = load ptr, ptr %10, align 8, !tbaa !3
  %42 = load ptr, ptr %13, align 8, !tbaa !3
  %43 = load i64, ptr %14, align 8, !tbaa !9
  %44 = call ptr @cl_hash_data(ptr noundef %41, ptr noundef %42, i64 noundef %43, ptr noundef null, ptr noundef null)
  store ptr %44, ptr %19, align 8, !tbaa !3
  %45 = load ptr, ptr %19, align 8, !tbaa !3
  %46 = icmp ne ptr %45, null
  br i1 %46, label %53, label %47

47:                                               ; preds = %40
  %48 = load i32, ptr %15, align 4, !tbaa !13
  %49 = icmp ne i32 %48, 0
  br i1 %49, label %50, label %52

50:                                               ; preds = %47
  %51 = load ptr, ptr %11, align 8, !tbaa !3
  call void @free(ptr noundef %51) #8
  br label %52

52:                                               ; preds = %50, %47
  store i32 -1, ptr %8, align 4
  store i32 1, ptr %22, align 4
  br label %130

53:                                               ; preds = %40
  %54 = load ptr, ptr %10, align 8, !tbaa !3
  %55 = call ptr @EVP_get_digestbyname(ptr noundef %54)
  store ptr %55, ptr %17, align 8, !tbaa !15
  %56 = load ptr, ptr %17, align 8, !tbaa !15
  %57 = icmp ne ptr %56, null
  br i1 %57, label %65, label %58

58:                                               ; preds = %53
  %59 = load ptr, ptr %19, align 8, !tbaa !3
  call void @free(ptr noundef %59) #8
  %60 = load i32, ptr %15, align 4, !tbaa !13
  %61 = icmp ne i32 %60, 0
  br i1 %61, label %62, label %64

62:                                               ; preds = %58
  %63 = load ptr, ptr %11, align 8, !tbaa !3
  call void @free(ptr noundef %63) #8
  br label %64

64:                                               ; preds = %62, %58
  store i32 -1, ptr %8, align 4
  store i32 1, ptr %22, align 4
  br label %130

65:                                               ; preds = %53
  %66 = load ptr, ptr %17, align 8, !tbaa !15
  %67 = call i32 @EVP_MD_get_size(ptr noundef %66)
  %68 = sext i32 %67 to i64
  store i64 %68, ptr %18, align 8, !tbaa !9
  %69 = call ptr @EVP_MD_CTX_new()
  store ptr %69, ptr %16, align 8, !tbaa !17
  %70 = load ptr, ptr %16, align 8, !tbaa !17
  %71 = icmp ne ptr %70, null
  br i1 %71, label %79, label %72

72:                                               ; preds = %65
  %73 = load ptr, ptr %19, align 8, !tbaa !3
  call void @free(ptr noundef %73) #8
  %74 = load i32, ptr %15, align 4, !tbaa !13
  %75 = icmp ne i32 %74, 0
  br i1 %75, label %76, label %78

76:                                               ; preds = %72
  %77 = load ptr, ptr %11, align 8, !tbaa !3
  call void @free(ptr noundef %77) #8
  br label %78

78:                                               ; preds = %76, %72
  store i32 -1, ptr %8, align 4
  store i32 1, ptr %22, align 4
  br label %130

79:                                               ; preds = %65
  %80 = load ptr, ptr %16, align 8, !tbaa !17
  call void @EVP_MD_CTX_set_flags(ptr noundef %80, i32 noundef 8)
  %81 = load ptr, ptr %16, align 8, !tbaa !17
  %82 = load ptr, ptr %17, align 8, !tbaa !15
  %83 = call i32 @EVP_DigestInit_ex(ptr noundef %81, ptr noundef %82, ptr noundef null)
  %84 = icmp ne i32 %83, 0
  br i1 %84, label %93, label %85

85:                                               ; preds = %79
  %86 = load ptr, ptr %19, align 8, !tbaa !3
  call void @free(ptr noundef %86) #8
  %87 = load i32, ptr %15, align 4, !tbaa !13
  %88 = icmp ne i32 %87, 0
  br i1 %88, label %89, label %91

89:                                               ; preds = %85
  %90 = load ptr, ptr %11, align 8, !tbaa !3
  call void @free(ptr noundef %90) #8
  br label %91

91:                                               ; preds = %89, %85
  %92 = load ptr, ptr %16, align 8, !tbaa !17
  call void @EVP_MD_CTX_free(ptr noundef %92)
  store i32 -1, ptr %8, align 4
  store i32 1, ptr %22, align 4
  br label %130

93:                                               ; preds = %79
  %94 = load ptr, ptr %16, align 8, !tbaa !17
  %95 = load ptr, ptr %19, align 8, !tbaa !3
  %96 = load i64, ptr %18, align 8, !tbaa !9
  %97 = call i32 @EVP_DigestUpdate(ptr noundef %94, ptr noundef %95, i64 noundef %96)
  %98 = icmp ne i32 %97, 0
  br i1 %98, label %107, label %99

99:                                               ; preds = %93
  %100 = load ptr, ptr %19, align 8, !tbaa !3
  call void @free(ptr noundef %100) #8
  %101 = load i32, ptr %15, align 4, !tbaa !13
  %102 = icmp ne i32 %101, 0
  br i1 %102, label %103, label %105

103:                                              ; preds = %99
  %104 = load ptr, ptr %11, align 8, !tbaa !3
  call void @free(ptr noundef %104) #8
  br label %105

105:                                              ; preds = %103, %99
  %106 = load ptr, ptr %16, align 8, !tbaa !17
  call void @EVP_MD_CTX_free(ptr noundef %106)
  store i32 -1, ptr %8, align 4
  store i32 1, ptr %22, align 4
  br label %130

107:                                              ; preds = %93
  %108 = load ptr, ptr %16, align 8, !tbaa !17
  %109 = load ptr, ptr %11, align 8, !tbaa !3
  %110 = load i32, ptr %12, align 4, !tbaa !13
  %111 = load ptr, ptr %9, align 8, !tbaa !24
  %112 = call i32 @EVP_VerifyFinal(ptr noundef %108, ptr noundef %109, i32 noundef %110, ptr noundef %111)
  %113 = icmp sle i32 %112, 0
  br i1 %113, label %114, label %122

114:                                              ; preds = %107
  %115 = load ptr, ptr %19, align 8, !tbaa !3
  call void @free(ptr noundef %115) #8
  %116 = load i32, ptr %15, align 4, !tbaa !13
  %117 = icmp ne i32 %116, 0
  br i1 %117, label %118, label %120

118:                                              ; preds = %114
  %119 = load ptr, ptr %11, align 8, !tbaa !3
  call void @free(ptr noundef %119) #8
  br label %120

120:                                              ; preds = %118, %114
  %121 = load ptr, ptr %16, align 8, !tbaa !17
  call void @EVP_MD_CTX_free(ptr noundef %121)
  store i32 -1, ptr %8, align 4
  store i32 1, ptr %22, align 4
  br label %130

122:                                              ; preds = %107
  %123 = load i32, ptr %15, align 4, !tbaa !13
  %124 = icmp ne i32 %123, 0
  br i1 %124, label %125, label %127

125:                                              ; preds = %122
  %126 = load ptr, ptr %11, align 8, !tbaa !3
  call void @free(ptr noundef %126) #8
  br label %127

127:                                              ; preds = %125, %122
  %128 = load ptr, ptr %19, align 8, !tbaa !3
  call void @free(ptr noundef %128) #8
  %129 = load ptr, ptr %16, align 8, !tbaa !17
  call void @EVP_MD_CTX_free(ptr noundef %129)
  store i32 0, ptr %8, align 4
  store i32 1, ptr %22, align 4
  br label %130

130:                                              ; preds = %127, %120, %105, %91, %78, %64, %52, %37
  call void @llvm.lifetime.end.p0(i64 8, ptr %19) #8
  call void @llvm.lifetime.end.p0(i64 8, ptr %18) #8
  call void @llvm.lifetime.end.p0(i64 8, ptr %17) #8
  call void @llvm.lifetime.end.p0(i64 8, ptr %16) #8
  %131 = load i32, ptr %8, align 4
  ret i32 %131
}