; Function Attrs: nounwind uwtable
define range(i32 -1, 1) i32 @cl_verify_signature(ptr noundef %0, ptr noundef %1, ptr noundef %2, i32 noundef %3, ptr noundef %4, i64 noundef %5, i32 noundef %6) local_unnamed_addr #1 {
  %8 = alloca i64, align 8
  %.not = icmp eq i32 %6, 0
  br i1 %.not, label %13, label %9

9:                                                ; preds = %7
  call void @llvm.lifetime.start.p0(i64 8, ptr nonnull %8) #12
  %10 = zext i32 %3 to i64
  %11 = call ptr @cl_base64_decode(ptr noundef %2, i64 noundef %10, ptr noundef null, ptr noundef nonnull %8, i32 noundef 1) #12
  %.not57.not = icmp eq ptr %11, null
  %12 = load i64, ptr %8, align 8
  call void @llvm.lifetime.end.p0(i64 8, ptr nonnull %8) #12
  br i1 %.not57.not, label %48, label %.thread

13:                                               ; preds = %7
  %14 = tail call ptr @cl_hash_data(ptr noundef %1, ptr noundef %4, i64 noundef %5, ptr noundef null, ptr noundef null)
  %.not58 = icmp eq ptr %14, null
  br i1 %.not58, label %48, label %18

.thread:                                          ; preds = %9
  %15 = trunc i64 %12 to i32
  %16 = call ptr @cl_hash_data(ptr noundef %1, ptr noundef %4, i64 noundef %5, ptr noundef null, ptr noundef null)
  %.not5865 = icmp eq ptr %16, null
  br i1 %.not5865, label %17, label %18

17:                                               ; preds = %.thread
  call void @free(ptr noundef nonnull %11) #12
  br label %48

18:                                               ; preds = %.thread, %13
  %19 = phi ptr [ %16, %.thread ], [ %14, %13 ]
  %.04967 = phi ptr [ %11, %.thread ], [ %2, %13 ]
  %.05166 = phi i32 [ %15, %.thread ], [ %3, %13 ]
  %20 = call ptr @EVP_get_digestbyname(ptr noundef %1) #12
  %.not59 = icmp eq ptr %20, null
  br i1 %.not59, label %21, label %23

21:                                               ; preds = %18
  call void @free(ptr noundef nonnull %19) #12
  br i1 %.not, label %48, label %22

22:                                               ; preds = %21
  call void @free(ptr noundef %.04967) #12
  br label %48

23:                                               ; preds = %18
  %24 = call i32 @EVP_MD_get_size(ptr noundef nonnull %20) #12
  %25 = sext i32 %24 to i64
  %26 = call ptr @EVP_MD_CTX_new() #12
  %.not60 = icmp eq ptr %26, null
  br i1 %.not60, label %27, label %29

27:                                               ; preds = %23
  call void @free(ptr noundef nonnull %19) #12
  br i1 %.not, label %48, label %28

28:                                               ; preds = %27
  call void @free(ptr noundef %.04967) #12
  br label %48

29:                                               ; preds = %23
  call void @EVP_MD_CTX_set_flags(ptr noundef nonnull %26, i32 noundef 8) #12
  %30 = call i32 @EVP_DigestInit_ex(ptr noundef nonnull %26, ptr noundef nonnull %20, ptr noundef null) #12
  %.not61 = icmp eq i32 %30, 0
  br i1 %.not61, label %31, label %34

31:                                               ; preds = %29
  call void @free(ptr noundef nonnull %19) #12
  br i1 %.not, label %33, label %32

32:                                               ; preds = %31
  call void @free(ptr noundef %.04967) #12
  br label %33

33:                                               ; preds = %32, %31
  call void @EVP_MD_CTX_free(ptr noundef nonnull %26) #12
  br label %48

34:                                               ; preds = %29
  %35 = call i32 @EVP_DigestUpdate(ptr noundef nonnull %26, ptr noundef nonnull %19, i64 noundef %25) #12
  %.not62 = icmp eq i32 %35, 0
  br i1 %.not62, label %36, label %39

36:                                               ; preds = %34
  call void @free(ptr noundef nonnull %19) #12
  br i1 %.not, label %38, label %37

37:                                               ; preds = %36
  call void @free(ptr noundef %.04967) #12
  br label %38

38:                                               ; preds = %37, %36
  call void @EVP_MD_CTX_free(ptr noundef nonnull %26) #12
  br label %48

39:                                               ; preds = %34
  %40 = call i32 @EVP_VerifyFinal(ptr noundef nonnull %26, ptr noundef %.04967, i32 noundef %.05166, ptr noundef %0) #12
  %41 = icmp slt i32 %40, 1
  br i1 %41, label %42, label %45

42:                                               ; preds = %39
  call void @free(ptr noundef nonnull %19) #12
  br i1 %.not, label %44, label %43

43:                                               ; preds = %42
  call void @free(ptr noundef %.04967) #12
  br label %44

44:                                               ; preds = %43, %42
  call void @EVP_MD_CTX_free(ptr noundef nonnull %26) #12
  br label %48

45:                                               ; preds = %39
  br i1 %.not, label %47, label %46

46:                                               ; preds = %45
  call void @free(ptr noundef %.04967) #12
  br label %47

47:                                               ; preds = %46, %45
  call void @free(ptr noundef nonnull %19) #12
  call void @EVP_MD_CTX_free(ptr noundef nonnull %26) #12
  br label %48

48:                                               ; preds = %13, %27, %28, %21, %22, %17, %9, %47, %44, %38, %33
  %.1 = phi i32 [ -1, %44 ], [ 0, %47 ], [ -1, %38 ], [ -1, %33 ], [ -1, %9 ], [ -1, %17 ], [ -1, %22 ], [ -1, %21 ], [ -1, %28 ], [ -1, %27 ], [ -1, %13 ]
  ret i32 %.1
}